(dp0
S'joints'
p1
(dp2
S'right_j6'
p3
F-3.0337265625
sS'right_j5'
p4
F0.9441103515625
sS'right_j4'
p5
F1.55927734375
sS'right_j3'
p6
F2.0156728515625
sS'right_j2'
p7
F-0.99840625
sS'right_j1'
p8
F-0.1582705078125
sS'right_j0'
p9
F0.24664453125
ssS'end_eff_xyz'
p10
cnumpy.core.multiarray
_reconstruct
p11
(cnumpy
ndarray
p12
(I0
tp13
S'b'
p14
tp15
Rp16
(I1
(I3
tp17
cnumpy
dtype
p18
(S'f8'
p19
I0
I1
tp20
Rp21
(I3
S'<'
p22
NNNI-1
I-1
I0
tp23
bI00
S'y\xed{\x1b\xf0p\xde?CO\xa9\t\x04\xff\xc1\xbf\x9c8\xa0\x94\xa3\xbc\xc3?'
p24
tp25
bsS'end_eff_quat'
p26
g11
(g12
(I0
tp27
g14
tp28
Rp29
(I1
(I4
tp30
g21
I00
S'j\xdf\xbeIb\xf1\xef?\xad\xd8\xc6\x9d\x0e\x94\x99\xbf{\xf8\x87\x17\xfcQ\xaa\xbf\xe2F\xff\xfe\xd1\xb1\x91?'
p31
tp32
bs.